target datalayout = "e-m:e-p270:32:32-p271:32:32-p272:64:64-i64:64-i128:128-f80:128-n8:16:32:64-S128"
target triple = "x86_64-pc-linux-gnu"

%struct.mbedtls_mpi = type { ptr, i16, i16 }
%struct.mbedtls_rsa_context = type { i32, i64, %struct.mbedtls_mpi, %struct.mbedtls_mpi, %struct.mbedtls_mpi, %struct.mbedtls_mpi, %struct.mbedtls_mpi, %struct.mbedtls_mpi, %struct.mbedtls_mpi, %struct.mbedtls_mpi, %struct.mbedtls_mpi, %struct.mbedtls_mpi, %struct.mbedtls_mpi, %struct.mbedtls_mpi, %struct.mbedtls_mpi, i32, i32 }

; Function Attrs: nounwind uwtable
define hidden i32 @mbedtls_rsa_copy(ptr noundef %0, ptr noundef %1) #0 {
  %3 = alloca ptr, align 8
  %4 = alloca ptr, align 8
  %5 = alloca i32, align 4
  store ptr %0, ptr %3, align 8, !tbaa !3
  store ptr %1, ptr %4, align 8, !tbaa !3
  call void @llvm.lifetime.start.p0(i64 4, ptr %5) #9
  store i32 -110, ptr %5, align 4, !tbaa !12
  %6 = load ptr, ptr %4, align 8, !tbaa !3
  %7 = getelementptr inbounds nuw %struct.mbedtls_rsa_context, ptr %6, i32 0, i32 1
  %8 = load i64, ptr %7, align 8, !tbaa !19
  %9 = load ptr, ptr %3, align 8, !tbaa !3
  %10 = getelementptr inbounds nuw %struct.mbedtls_rsa_context, ptr %9, i32 0, i32 1
  store i64 %8, ptr %10, align 8, !tbaa !19
  br label %11

11:                                               ; preds = %2
  %12 = load ptr, ptr %3, align 8, !tbaa !3
  %13 = getelementptr inbounds nuw %struct.mbedtls_rsa_context, ptr %12, i32 0, i32 2
  %14 = load ptr, ptr %4, align 8, !tbaa !3
  %15 = getelementptr inbounds nuw %struct.mbedtls_rsa_context, ptr %14, i32 0, i32 2
  %16 = call i32 @mbedtls_mpi_copy(ptr noundef %13, ptr noundef %15)
  store i32 %16, ptr %5, align 4, !tbaa !12
  %17 = icmp ne i32 %16, 0
  br i1 %17, label %18, label %19

18:                                               ; preds = %11
  br label %164

19:                                               ; preds = %11
  br label %20

20:                                               ; preds = %19
  br label %21

21:                                               ; preds = %20
  br label %22

22:                                               ; preds = %21
  %23 = load ptr, ptr %3, align 8, !tbaa !3
  %24 = getelementptr inbounds nuw %struct.mbedtls_rsa_context, ptr %23, i32 0, i32 3
  %25 = load ptr, ptr %4, align 8, !tbaa !3
  %26 = getelementptr inbounds nuw %struct.mbedtls_rsa_context, ptr %25, i32 0, i32 3
  %27 = call i32 @mbedtls_mpi_copy(ptr noundef %24, ptr noundef %26)
  store i32 %27, ptr %5, align 4, !tbaa !12
  %28 = icmp ne i32 %27, 0
  br i1 %28, label %29, label %30

29:                                               ; preds = %22
  br label %164

30:                                               ; preds = %22
  br label %31

31:                                               ; preds = %30
  br label %32

32:                                               ; preds = %31
  br label %33

33:                                               ; preds = %32
  %34 = load ptr, ptr %3, align 8, !tbaa !3
  %35 = getelementptr inbounds nuw %struct.mbedtls_rsa_context, ptr %34, i32 0, i32 4
  %36 = load ptr, ptr %4, align 8, !tbaa !3
  %37 = getelementptr inbounds nuw %struct.mbedtls_rsa_context, ptr %36, i32 0, i32 4
  %38 = call i32 @mbedtls_mpi_copy(ptr noundef %35, ptr noundef %37)
  store i32 %38, ptr %5, align 4, !tbaa !12
  %39 = icmp ne i32 %38, 0
  br i1 %39, label %40, label %41

40:                                               ; preds = %33
  br label %164

41:                                               ; preds = %33
  br label %42

42:                                               ; preds = %41
  br label %43

43:                                               ; preds = %42
  br label %44

44:                                               ; preds = %43
  %45 = load ptr, ptr %3, align 8, !tbaa !3
  %46 = getelementptr inbounds nuw %struct.mbedtls_rsa_context, ptr %45, i32 0, i32 5
  %47 = load ptr, ptr %4, align 8, !tbaa !3
  %48 = getelementptr inbounds nuw %struct.mbedtls_rsa_context, ptr %47, i32 0, i32 5
  %49 = call i32 @mbedtls_mpi_copy(ptr noundef %46, ptr noundef %48)
  store i32 %49, ptr %5, align 4, !tbaa !12
  %50 = icmp ne i32 %49, 0
  br i1 %50, label %51, label %52

51:                                               ; preds = %44
  br label %164

52:                                               ; preds = %44
  br label %53

53:                                               ; preds = %52
  br label %54

54:                                               ; preds = %53
  br label %55

55:                                               ; preds = %54
  %56 = load ptr, ptr %3, align 8, !tbaa !3
  %57 = getelementptr inbounds nuw %struct.mbedtls_rsa_context, ptr %56, i32 0, i32 6
  %58 = load ptr, ptr %4, align 8, !tbaa !3
  %59 = getelementptr inbounds nuw %struct.mbedtls_rsa_context, ptr %58, i32 0, i32 6
  %60 = call i32 @mbedtls_mpi_copy(ptr noundef %57, ptr noundef %59)
  store i32 %60, ptr %5, align 4, !tbaa !12
  %61 = icmp ne i32 %60, 0
  br i1 %61, label %62, label %63

62:                                               ; preds = %55
  br label %164

63:                                               ; preds = %55
  br label %64

64:                                               ; preds = %63
  br label %65

65:                                               ; preds = %64
  br label %66

66:                                               ; preds = %65
  %67 = load ptr, ptr %3, align 8, !tbaa !3
  %68 = getelementptr inbounds nuw %struct.mbedtls_rsa_context, ptr %67, i32 0, i32 7
  %69 = load ptr, ptr %4, align 8, !tbaa !3
  %70 = getelementptr inbounds nuw %struct.mbedtls_rsa_context, ptr %69, i32 0, i32 7
  %71 = call i32 @mbedtls_mpi_copy(ptr noundef %68, ptr noundef %70)
  store i32 %71, ptr %5, align 4, !tbaa !12
  %72 = icmp ne i32 %71, 0
  br i1 %72, label %73, label %74

73:                                               ; preds = %66
  br label %164

74:                                               ; preds = %66
  br label %75

75:                                               ; preds = %74
  br label %76

76:                                               ; preds = %75
  br label %77

77:                                               ; preds = %76
  %78 = load ptr, ptr %3, align 8, !tbaa !3
  %79 = getelementptr inbounds nuw %struct.mbedtls_rsa_context, ptr %78, i32 0, i32 8
  %80 = load ptr, ptr %4, align 8, !tbaa !3
  %81 = getelementptr inbounds nuw %struct.mbedtls_rsa_context, ptr %80, i32 0, i32 8
  %82 = call i32 @mbedtls_mpi_copy(ptr noundef %79, ptr noundef %81)
  store i32 %82, ptr %5, align 4, !tbaa !12
  %83 = icmp ne i32 %82, 0
  br i1 %83, label %84, label %85

84:                                               ; preds = %77
  br label %164

85:                                               ; preds = %77
  br label %86

86:                                               ; preds = %85
  br label %87

87:                                               ; preds = %86
  br label %88

88:                                               ; preds = %87
  %89 = load ptr, ptr %3, align 8, !tbaa !3
  %90 = getelementptr inbounds nuw %struct.mbedtls_rsa_context, ptr %89, i32 0, i32 9
  %91 = load ptr, ptr %4, align 8, !tbaa !3
  %92 = getelementptr inbounds nuw %struct.mbedtls_rsa_context, ptr %91, i32 0, i32 9
  %93 = call i32 @mbedtls_mpi_copy(ptr noundef %90, ptr noundef %92)
  store i32 %93, ptr %5, align 4, !tbaa !12
  %94 = icmp ne i32 %93, 0
  br i1 %94, label %95, label %96

95:                                               ; preds = %88
  br label %164

96:                                               ; preds = %88
  br label %97

97:                                               ; preds = %96
  br label %98

98:                                               ; preds = %97
  br label %99

99:                                               ; preds = %98
  %100 = load ptr, ptr %3, align 8, !tbaa !3
  %101 = getelementptr inbounds nuw %struct.mbedtls_rsa_context, ptr %100, i32 0, i32 11
  %102 = load ptr, ptr %4, align 8, !tbaa !3
  %103 = getelementptr inbounds nuw %struct.mbedtls_rsa_context, ptr %102, i32 0, i32 11
  %104 = call i32 @mbedtls_mpi_copy(ptr noundef %101, ptr noundef %103)
  store i32 %104, ptr %5, align 4, !tbaa !12
  %105 = icmp ne i32 %104, 0
  br i1 %105, label %106, label %107

106:                                              ; preds = %99
  br label %164

107:                                              ; preds = %99
  br label %108

108:                                              ; preds = %107
  br label %109

109:                                              ; preds = %108
  br label %110

110:                                              ; preds = %109
  %111 = load ptr, ptr %3, align 8, !tbaa !3
  %112 = getelementptr inbounds nuw %struct.mbedtls_rsa_context, ptr %111, i32 0, i32 12
  %113 = load ptr, ptr %4, align 8, !tbaa !3
  %114 = getelementptr inbounds nuw %struct.mbedtls_rsa_context, ptr %113, i32 0, i32 12
  %115 = call i32 @mbedtls_mpi_copy(ptr noundef %112, ptr noundef %114)
  store i32 %115, ptr %5, align 4, !tbaa !12
  %116 = icmp ne i32 %115, 0
  br i1 %116, label %117, label %118

117:                                              ; preds = %110
  br label %164

118:                                              ; preds = %110
  br label %119

119:                                              ; preds = %118
  br label %120

120:                                              ; preds = %119
  br label %121

121:                                              ; preds = %120
  %122 = load ptr, ptr %3, align 8, !tbaa !3
  %123 = getelementptr inbounds nuw %struct.mbedtls_rsa_context, ptr %122, i32 0, i32 10
  %124 = load ptr, ptr %4, align 8, !tbaa !3
  %125 = getelementptr inbounds nuw %struct.mbedtls_rsa_context, ptr %124, i32 0, i32 10
  %126 = call i32 @mbedtls_mpi_copy(ptr noundef %123, ptr noundef %125)
  store i32 %126, ptr %5, align 4, !tbaa !12
  %127 = icmp ne i32 %126, 0
  br i1 %127, label %128, label %129

128:                                              ; preds = %121
  br label %164

129:                                              ; preds = %121
  br label %130

130:                                              ; preds = %129
  br label %131

131:                                              ; preds = %130
  br label %132

132:                                              ; preds = %131
  %133 = load ptr, ptr %3, align 8, !tbaa !3
  %134 = getelementptr inbounds nuw %struct.mbedtls_rsa_context, ptr %133, i32 0, i32 13
  %135 = load ptr, ptr %4, align 8, !tbaa !3
  %136 = getelementptr inbounds nuw %struct.mbedtls_rsa_context, ptr %135, i32 0, i32 13
  %137 = call i32 @mbedtls_mpi_copy(ptr noundef %134, ptr noundef %136)
  store i32 %137, ptr %5, align 4, !tbaa !12
  %138 = icmp ne i32 %137, 0
  br i1 %138, label %139, label %140

139:                                              ; preds = %132
  br label %164

140:                                              ; preds = %132
  br label %141

141:                                              ; preds = %140
  br label %142

142:                                              ; preds = %141
  br label %143

143:                                              ; preds = %142
  %144 = load ptr, ptr %3, align 8, !tbaa !3
  %145 = getelementptr inbounds nuw %struct.mbedtls_rsa_context, ptr %144, i32 0, i32 14
  %146 = load ptr, ptr %4, align 8, !tbaa !3
  %147 = getelementptr inbounds nuw %struct.mbedtls_rsa_context, ptr %146, i32 0, i32 14
  %148 = call i32 @mbedtls_mpi_copy(ptr noundef %145, ptr noundef %147)
  store i32 %148, ptr %5, align 4, !tbaa !12
  %149 = icmp ne i32 %148, 0
  br i1 %149, label %150, label %151

150:                                              ; preds = %143
  br label %164

151:                                              ; preds = %143
  br label %152

152:                                              ; preds = %151
  br label %153

153:                                              ; preds = %152
  %154 = load ptr, ptr %4, align 8, !tbaa !3
  %155 = getelementptr inbounds nuw %struct.mbedtls_rsa_context, ptr %154, i32 0, i32 15
  %156 = load i32, ptr %155, align 8, !tbaa !24
  %157 = load ptr, ptr %3, align 8, !tbaa !3
  %158 = getelementptr inbounds nuw %struct.mbedtls_rsa_context, ptr %157, i32 0, i32 15
  store i32 %156, ptr %158, align 8, !tbaa !24
  %159 = load ptr, ptr %4, align 8, !tbaa !3
  %160 = getelementptr inbounds nuw %struct.mbedtls_rsa_context, ptr %159, i32 0, i32 16
  %161 = load i32, ptr %160, align 4, !tbaa !25
  %162 = load ptr, ptr %3, align 8, !tbaa !3
  %163 = getelementptr inbounds nuw %struct.mbedtls_rsa_context, ptr %162, i32 0, i32 16
  store i32 %161, ptr %163, align 4, !tbaa !25
  br label %164

164:                                              ; preds = %153, %150, %139, %128, %117, %106, %95, %84, %73, %62, %51, %40, %29, %18
  %165 = load i32, ptr %5, align 4, !tbaa !12
  %166 = icmp ne i32 %165, 0
  br i1 %166, label %167, label %169

167:                                              ; preds = %164
  %168 = load ptr, ptr %3, align 8, !tbaa !3
  call void @mbedtls_rsa_free(ptr noundef %168)
  br label %169

169:                                              ; preds = %167, %164
  %170 = load i32, ptr %5, align 4, !tbaa !12
  call void @llvm.lifetime.end.p0(i64 4, ptr %5) #9
  ret i32 %170
}