; Function Attrs: nounwind uwtable
define hidden i32 @mbedtls_rsa_copy(ptr noundef initializes((8, 16)) %0, ptr noundef %1) local_unnamed_addr #0 {
  %3 = getelementptr inbounds nuw i8, ptr %1, i64 8
  %4 = load i64, ptr %3, align 8, !tbaa !12
  %5 = getelementptr inbounds nuw i8, ptr %0, i64 8
  store i64 %4, ptr %5, align 8, !tbaa !12
  %6 = getelementptr inbounds nuw i8, ptr %0, i64 16
  %7 = getelementptr inbounds nuw i8, ptr %1, i64 16
  %8 = tail call i32 @mbedtls_mpi_copy(ptr noundef nonnull %6, ptr noundef nonnull %7) #14
  %.not = icmp eq i32 %8, 0
  br i1 %.not, label %9, label %64

9:                                                ; preds = %2
  %10 = getelementptr inbounds nuw i8, ptr %0, i64 32
  %11 = getelementptr inbounds nuw i8, ptr %1, i64 32
  %12 = tail call i32 @mbedtls_mpi_copy(ptr noundef nonnull %10, ptr noundef nonnull %11) #14
  %.not47 = icmp eq i32 %12, 0
  br i1 %.not47, label %13, label %64

13:                                               ; preds = %9
  %14 = getelementptr inbounds nuw i8, ptr %0, i64 48
  %15 = getelementptr inbounds nuw i8, ptr %1, i64 48
  %16 = tail call i32 @mbedtls_mpi_copy(ptr noundef nonnull %14, ptr noundef nonnull %15) #14
  %.not48 = icmp eq i32 %16, 0
  br i1 %.not48, label %17, label %64

17:                                               ; preds = %13
  %18 = getelementptr inbounds nuw i8, ptr %0, i64 64
  %19 = getelementptr inbounds nuw i8, ptr %1, i64 64
  %20 = tail call i32 @mbedtls_mpi_copy(ptr noundef nonnull %18, ptr noundef nonnull %19) #14
  %.not49 = icmp eq i32 %20, 0
  br i1 %.not49, label %21, label %64

21:                                               ; preds = %17
  %22 = getelementptr inbounds nuw i8, ptr %0, i64 80
  %23 = getelementptr inbounds nuw i8, ptr %1, i64 80
  %24 = tail call i32 @mbedtls_mpi_copy(ptr noundef nonnull %22, ptr noundef nonnull %23) #14
  %.not50 = icmp eq i32 %24, 0
  br i1 %.not50, label %25, label %64

25:                                               ; preds = %21
  %26 = getelementptr inbounds nuw i8, ptr %0, i64 96
  %27 = getelementptr inbounds nuw i8, ptr %1, i64 96
  %28 = tail call i32 @mbedtls_mpi_copy(ptr noundef nonnull %26, ptr noundef nonnull %27) #14
  %.not51 = icmp eq i32 %28, 0
  br i1 %.not51, label %29, label %64

29:                                               ; preds = %25
  %30 = getelementptr inbounds nuw i8, ptr %0, i64 112
  %31 = getelementptr inbounds nuw i8, ptr %1, i64 112
  %32 = tail call i32 @mbedtls_mpi_copy(ptr noundef nonnull %30, ptr noundef nonnull %31) #14
  %.not52 = icmp eq i32 %32, 0
  br i1 %.not52, label %33, label %64

33:                                               ; preds = %29
  %34 = getelementptr inbounds nuw i8, ptr %0, i64 128
  %35 = getelementptr inbounds nuw i8, ptr %1, i64 128
  %36 = tail call i32 @mbedtls_mpi_copy(ptr noundef nonnull %34, ptr noundef nonnull %35) #14
  %.not53 = icmp eq i32 %36, 0
  br i1 %.not53, label %37, label %64

37:                                               ; preds = %33
  %38 = getelementptr inbounds nuw i8, ptr %0, i64 160
  %39 = getelementptr inbounds nuw i8, ptr %1, i64 160
  %40 = tail call i32 @mbedtls_mpi_copy(ptr noundef nonnull %38, ptr noundef nonnull %39) #14
  %.not54 = icmp eq i32 %40, 0
  br i1 %.not54, label %41, label %64

41:                                               ; preds = %37
  %42 = getelementptr inbounds nuw i8, ptr %0, i64 176
  %43 = getelementptr inbounds nuw i8, ptr %1, i64 176
  %44 = tail call i32 @mbedtls_mpi_copy(ptr noundef nonnull %42, ptr noundef nonnull %43) #14
  %.not55 = icmp eq i32 %44, 0
  br i1 %.not55, label %45, label %64

45:                                               ; preds = %41
  %46 = getelementptr inbounds nuw i8, ptr %0, i64 144
  %47 = getelementptr inbounds nuw i8, ptr %1, i64 144
  %48 = tail call i32 @mbedtls_mpi_copy(ptr noundef nonnull %46, ptr noundef nonnull %47) #14
  %.not56 = icmp eq i32 %48, 0
  br i1 %.not56, label %49, label %64

49:                                               ; preds = %45
  %50 = getelementptr inbounds nuw i8, ptr %0, i64 192
  %51 = getelementptr inbounds nuw i8, ptr %1, i64 192
  %52 = tail call i32 @mbedtls_mpi_copy(ptr noundef nonnull %50, ptr noundef nonnull %51) #14
  %.not57 = icmp eq i32 %52, 0
  br i1 %.not57, label %53, label %64

53:                                               ; preds = %49
  %54 = getelementptr inbounds nuw i8, ptr %0, i64 208
  %55 = getelementptr inbounds nuw i8, ptr %1, i64 208
  %56 = tail call i32 @mbedtls_mpi_copy(ptr noundef nonnull %54, ptr noundef nonnull %55) #14
  %.not58 = icmp eq i32 %56, 0
  br i1 %.not58, label %57, label %64

57:                                               ; preds = %53
  %58 = getelementptr inbounds nuw i8, ptr %1, i64 224
  %59 = load i32, ptr %58, align 8, !tbaa !17
  %60 = getelementptr inbounds nuw i8, ptr %0, i64 224
  store i32 %59, ptr %60, align 8, !tbaa !17
  %61 = getelementptr inbounds nuw i8, ptr %1, i64 228
  %62 = load i32, ptr %61, align 4, !tbaa !18
  %63 = getelementptr inbounds nuw i8, ptr %0, i64 228
  store i32 %62, ptr %63, align 4, !tbaa !18
  br label %65

64:                                               ; preds = %2, %9, %13, %17, %21, %25, %29, %33, %37, %41, %45, %49, %53
  %.0.ph = phi i32 [ %56, %53 ], [ %52, %49 ], [ %48, %45 ], [ %44, %41 ], [ %40, %37 ], [ %36, %33 ], [ %32, %29 ], [ %28, %25 ], [ %24, %21 ], [ %20, %17 ], [ %16, %13 ], [ %12, %9 ], [ %8, %2 ]
  tail call void @mbedtls_rsa_free(ptr noundef nonnull %0)
  br label %65

65:                                               ; preds = %57, %64
  %.063 = phi i32 [ %.0.ph, %64 ], [ 0, %57 ]
  ret i32 %.063
}